target datalayout = "e-m:e-p270:32:32-p271:32:32-p272:64:64-i64:64-i128:128-f80:128-n8:16:32:64-S128"
target triple = "x86_64-pc-linux-gnu"

@.str.39 = private unnamed_addr constant [56 x i8] c"%10.5f %9.5f %9.5f %9.5f %9.5f %9.5f %9.5f %9.5f %9.5f\0A\00", align 1
@.str.40 = private unnamed_addr constant [20 x i8] c"%10.5f %9.5f %9.5f\0A\00", align 1

; Function Attrs: mustprogress nounwind uwtable
define internal void @_ZL15write_hconf_boxP8_IO_FILEPA3_Kf(ptr noundef %0, ptr noundef %1) #5 {
  %3 = alloca ptr, align 8
  %4 = alloca ptr, align 8
  store ptr %0, ptr %3, align 8, !tbaa !11
  store ptr %1, ptr %4, align 8, !tbaa !72
  %5 = load ptr, ptr %4, align 8, !tbaa !72
  %6 = getelementptr inbounds [3 x float], ptr %5, i64 0
  %7 = getelementptr inbounds [3 x float], ptr %6, i64 0, i64 1
  %8 = load float, ptr %7, align 4, !tbaa !103
  %9 = fcmp une float %8, 0.000000e+00
  br i1 %9, label %40, label %10

10:                                               ; preds = %2
  %11 = load ptr, ptr %4, align 8, !tbaa !72
  %12 = getelementptr inbounds [3 x float], ptr %11, i64 0
  %13 = getelementptr inbounds [3 x float], ptr %12, i64 0, i64 2
  %14 = load float, ptr %13, align 4, !tbaa !103
  %15 = fcmp une float %14, 0.000000e+00
  br i1 %15, label %40, label %16

16:                                               ; preds = %10
  %17 = load ptr, ptr %4, align 8, !tbaa !72
  %18 = getelementptr inbounds [3 x float], ptr %17, i64 1
  %19 = getelementptr inbounds [3 x float], ptr %18, i64 0, i64 0
  %20 = load float, ptr %19, align 4, !tbaa !103
  %21 = fcmp une float %20, 0.000000e+00
  br i1 %21, label %40, label %22

22:                                               ; preds = %16
  %23 = load ptr, ptr %4, align 8, !tbaa !72
  %24 = getelementptr inbounds [3 x float], ptr %23, i64 1
  %25 = getelementptr inbounds [3 x float], ptr %24, i64 0, i64 2
  %26 = load float, ptr %25, align 4, !tbaa !103
  %27 = fcmp une float %26, 0.000000e+00
  br i1 %27, label %40, label %28

28:                                               ; preds = %22
  %29 = load ptr, ptr %4, align 8, !tbaa !72
  %30 = getelementptr inbounds [3 x float], ptr %29, i64 2
  %31 = getelementptr inbounds [3 x float], ptr %30, i64 0, i64 0
  %32 = load float, ptr %31, align 4, !tbaa !103
  %33 = fcmp une float %32, 0.000000e+00
  br i1 %33, label %40, label %34

34:                                               ; preds = %28
  %35 = load ptr, ptr %4, align 8, !tbaa !72
  %36 = getelementptr inbounds [3 x float], ptr %35, i64 2
  %37 = getelementptr inbounds [3 x float], ptr %36, i64 0, i64 1
  %38 = load float, ptr %37, align 4, !tbaa !103
  %39 = fcmp une float %38, 0.000000e+00
  br i1 %39, label %40, label %88

40:                                               ; preds = %34, %28, %22, %16, %10, %2
  %41 = load ptr, ptr %3, align 8, !tbaa !11
  %42 = load ptr, ptr %4, align 8, !tbaa !72
  %43 = getelementptr inbounds [3 x float], ptr %42, i64 0
  %44 = getelementptr inbounds [3 x float], ptr %43, i64 0, i64 0
  %45 = load float, ptr %44, align 4, !tbaa !103
  %46 = fpext float %45 to double
  %47 = load ptr, ptr %4, align 8, !tbaa !72
  %48 = getelementptr inbounds [3 x float], ptr %47, i64 1
  %49 = getelementptr inbounds [3 x float], ptr %48, i64 0, i64 1
  %50 = load float, ptr %49, align 4, !tbaa !103
  %51 = fpext float %50 to double
  %52 = load ptr, ptr %4, align 8, !tbaa !72
  %53 = getelementptr inbounds [3 x float], ptr %52, i64 2
  %54 = getelementptr inbounds [3 x float], ptr %53, i64 0, i64 2
  %55 = load float, ptr %54, align 4, !tbaa !103
  %56 = fpext float %55 to double
  %57 = load ptr, ptr %4, align 8, !tbaa !72
  %58 = getelementptr inbounds [3 x float], ptr %57, i64 0
  %59 = getelementptr inbounds [3 x float], ptr %58, i64 0, i64 1
  %60 = load float, ptr %59, align 4, !tbaa !103
  %61 = fpext float %60 to double
  %62 = load ptr, ptr %4, align 8, !tbaa !72
  %63 = getelementptr inbounds [3 x float], ptr %62, i64 0
  %64 = getelementptr inbounds [3 x float], ptr %63, i64 0, i64 2
  %65 = load float, ptr %64, align 4, !tbaa !103
  %66 = fpext float %65 to double
  %67 = load ptr, ptr %4, align 8, !tbaa !72
  %68 = getelementptr inbounds [3 x float], ptr %67, i64 1
  %69 = getelementptr inbounds [3 x float], ptr %68, i64 0, i64 0
  %70 = load float, ptr %69, align 4, !tbaa !103
  %71 = fpext float %70 to double
  %72 = load ptr, ptr %4, align 8, !tbaa !72
  %73 = getelementptr inbounds [3 x float], ptr %72, i64 1
  %74 = getelementptr inbounds [3 x float], ptr %73, i64 0, i64 2
  %75 = load float, ptr %74, align 4, !tbaa !103
  %76 = fpext float %75 to double
  %77 = load ptr, ptr %4, align 8, !tbaa !72
  %78 = getelementptr inbounds [3 x float], ptr %77, i64 2
  %79 = getelementptr inbounds [3 x float], ptr %78, i64 0, i64 0
  %80 = load float, ptr %79, align 4, !tbaa !103
  %81 = fpext float %80 to double
  %82 = load ptr, ptr %4, align 8, !tbaa !72
  %83 = getelementptr inbounds [3 x float], ptr %82, i64 2
  %84 = getelementptr inbounds [3 x float], ptr %83, i64 0, i64 1
  %85 = load float, ptr %84, align 4, !tbaa !103
  %86 = fpext float %85 to double
  %87 = call i32 (ptr, ptr, ...) @fprintf(ptr noundef %41, ptr noundef @.str.39, double noundef %46, double noundef %51, double noundef %56, double noundef %61, double noundef %66, double noundef %71, double noundef %76, double noundef %81, double noundef %86) #13
  br label %106

88:                                               ; preds = %34
  %89 = load ptr, ptr %3, align 8, !tbaa !11
  %90 = load ptr, ptr %4, align 8, !tbaa !72
  %91 = getelementptr inbounds [3 x float], ptr %90, i64 0
  %92 = getelementptr inbounds [3 x float], ptr %91, i64 0, i64 0
  %93 = load float, ptr %92, align 4, !tbaa !103
  %94 = fpext float %93 to double
  %95 = load ptr, ptr %4, align 8, !tbaa !72
  %96 = getelementptr inbounds [3 x float], ptr %95, i64 1
  %97 = getelementptr inbounds [3 x float], ptr %96, i64 0, i64 1
  %98 = load float, ptr %97, align 4, !tbaa !103
  %99 = fpext float %98 to double
  %100 = load ptr, ptr %4, align 8, !tbaa !72
  %101 = getelementptr inbounds [3 x float], ptr %100, i64 2
  %102 = getelementptr inbounds [3 x float], ptr %101, i64 0, i64 2
  %103 = load float, ptr %102, align 4, !tbaa !103
  %104 = fpext float %103 to double
  %105 = call i32 (ptr, ptr, ...) @fprintf(ptr noundef %89, ptr noundef @.str.40, double noundef %94, double noundef %99, double noundef %104) #13
  br label %106

106:                                              ; preds = %88, %40
  ret void
}