; Function Attrs: mustprogress nofree nounwind uwtable
define internal fastcc void @_ZL15write_hconf_boxP8_IO_FILEPA3_Kf(ptr noundef captures(none) %0, ptr noundef readonly captures(none) %1) unnamed_addr #14 {
  %3 = getelementptr inbounds nuw i8, ptr %1, i64 4
  %4 = load float, ptr %3, align 4, !tbaa !45
  %5 = fcmp une float %4, 0.000000e+00
  %.phi.trans.insert = getelementptr inbounds nuw i8, ptr %1, i64 8
  %.pre = load float, ptr %.phi.trans.insert, align 4, !tbaa !45
  %6 = fcmp une float %.pre, 0.000000e+00
  %or.cond = select i1 %5, i1 true, i1 %6
  br i1 %or.cond, label %._crit_edge, label %7

7:                                                ; preds = %2
  %8 = getelementptr inbounds nuw i8, ptr %1, i64 12
  %9 = load float, ptr %8, align 4, !tbaa !45
  %10 = fcmp une float %9, 0.000000e+00
  br i1 %10, label %._crit_edge, label %11

11:                                               ; preds = %7
  %12 = getelementptr inbounds nuw i8, ptr %1, i64 20
  %13 = load float, ptr %12, align 4, !tbaa !45
  %14 = fcmp une float %13, 0.000000e+00
  br i1 %14, label %._crit_edge, label %15

15:                                               ; preds = %11
  %16 = getelementptr inbounds nuw i8, ptr %1, i64 24
  %17 = load float, ptr %16, align 4, !tbaa !45
  %18 = fcmp une float %17, 0.000000e+00
  br i1 %18, label %._crit_edge, label %19

19:                                               ; preds = %15
  %20 = getelementptr inbounds nuw i8, ptr %1, i64 28
  %21 = load float, ptr %20, align 4, !tbaa !45
  %22 = fcmp une float %21, 0.000000e+00
  br i1 %22, label %._crit_edge, label %46

._crit_edge:                                      ; preds = %2, %19, %15, %11, %7
  %23 = load float, ptr %1, align 4, !tbaa !45
  %24 = fpext float %23 to double
  %25 = getelementptr inbounds nuw i8, ptr %1, i64 12
  %26 = getelementptr inbounds nuw i8, ptr %1, i64 16
  %27 = load float, ptr %26, align 4, !tbaa !45
  %28 = fpext float %27 to double
  %29 = getelementptr inbounds nuw i8, ptr %1, i64 24
  %30 = getelementptr inbounds nuw i8, ptr %1, i64 32
  %31 = load float, ptr %30, align 4, !tbaa !45
  %32 = fpext float %31 to double
  %33 = fpext float %4 to double
  %34 = fpext float %.pre to double
  %35 = load float, ptr %25, align 4, !tbaa !45
  %36 = fpext float %35 to double
  %37 = getelementptr inbounds nuw i8, ptr %1, i64 20
  %38 = load float, ptr %37, align 4, !tbaa !45
  %39 = fpext float %38 to double
  %40 = load float, ptr %29, align 4, !tbaa !45
  %41 = fpext float %40 to double
  %42 = getelementptr inbounds nuw i8, ptr %1, i64 28
  %43 = load float, ptr %42, align 4, !tbaa !45
  %44 = fpext float %43 to double
  %45 = tail call i32 (ptr, ptr, ...) @fprintf(ptr noundef %0, ptr noundef nonnull @.str.39, double noundef %24, double noundef %28, double noundef %32, double noundef %33, double noundef %34, double noundef %36, double noundef %39, double noundef %41, double noundef %44) #19
  br label %56

46:                                               ; preds = %19
  %47 = load float, ptr %1, align 4, !tbaa !45
  %48 = fpext float %47 to double
  %49 = getelementptr inbounds nuw i8, ptr %1, i64 16
  %50 = load float, ptr %49, align 4, !tbaa !45
  %51 = fpext float %50 to double
  %52 = getelementptr inbounds nuw i8, ptr %1, i64 32
  %53 = load float, ptr %52, align 4, !tbaa !45
  %54 = fpext float %53 to double
  %55 = tail call i32 (ptr, ptr, ...) @fprintf(ptr noundef %0, ptr noundef nonnull @.str.40, double noundef %48, double noundef %51, double noundef %54) #19
  br label %56

56:                                               ; preds = %46, %._crit_edge
  ret void
}